; ModuleID = '51/205.c'
source_filename = "51/205.c"
target datalayout = "e-m:e-p270:32:32-p271:32:32-p272:64:64-i64:64-f80:128-n8:16:32:64-S128"
target triple = "x86_64-pc-linux-gnu"

@.str = private unnamed_addr constant [4 x i8] c"%d\0A\00", align 1
@.str.1 = private unnamed_addr constant [4 x i8] c"%s\0A\00", align 1
@.str.2 = private unnamed_addr constant [3 x i8] c"NO\00", align 1

; Function Attrs: noinline nounwind uwtable
define dso_local i32 @main() #0 {
  %1 = alloca i32, align 4
  %2 = alloca i32, align 4
  %3 = alloca i32, align 4
  %4 = alloca i32, align 4
  %5 = alloca [550 x i32], align 16
  %6 = alloca i32, align 4
  %7 = alloca [550 x i8], align 16
  %8 = alloca [550 x [10 x i8]], align 16
  %9 = alloca [10 x i8], align 1
  %10 = alloca i32, align 4
  %11 = alloca i32, align 4
  %12 = alloca i32, align 4
  %13 = alloca i32, align 4
  %14 = alloca i32, align 4
  store i32 0, i32* %1, align 4
  store i32 0, i32* %3, align 4
  %15 = bitcast [550 x i32]* %5 to i8*
  call void @llvm.memset.p0i8.i64(i8* align 16 %15, i8 0, i64 2200, i1 false)
  store i32 0, i32* %6, align 4
  %16 = call i32 (i8*, ...) @__isoc99_scanf(i8* getelementptr inbounds ([4 x i8], [4 x i8]* @.str, i64 0, i64 0), i32* %2)
  %17 = bitcast [550 x [10 x i8]]* %8 to i8*
  call void @llvm.memset.p0i8.i64(i8* align 16 %17, i8 0, i64 5500, i1 false)
  %18 = load i32, i32* %2, align 4
  %19 = sext i32 %18 to i64
  %20 = getelementptr inbounds [10 x i8], [10 x i8]* %9, i64 0, i64 %19
  store i8 0, i8* %20, align 1
  %21 = getelementptr inbounds [550 x i8], [550 x i8]* %7, i64 0, i64 0
  %22 = call i32 (i8*, ...) bitcast (i32 (...)* @gets to i32 (i8*, ...)*)(i8* %21)
  store i32 0, i32* %10, align 4
  br label %23

23:                                               ; preds = %85, %0
  %24 = load i32, i32* %10, align 4
  %25 = load i32, i32* %2, align 4
  %26 = add nsw i32 %24, %25
  %27 = sext i32 %26 to i64
  %28 = getelementptr inbounds [550 x i8], [550 x i8]* %7, i64 0, i64 0
  %29 = call i64 @strlen(i8* %28) #5
  %30 = icmp ule i64 %27, %29
  br i1 %30, label %31, label %88

31:                                               ; preds = %23
  store i32 0, i32* %4, align 4
  store i32 0, i32* %11, align 4
  br label %32

32:                                               ; preds = %46, %31
  %33 = load i32, i32* %11, align 4
  %34 = load i32, i32* %2, align 4
  %35 = icmp slt i32 %33, %34
  br i1 %35, label %36, label %49

36:                                               ; preds = %32
  %37 = load i32, i32* %10, align 4
  %38 = load i32, i32* %11, align 4
  %39 = add nsw i32 %37, %38
  %40 = sext i32 %39 to i64
  %41 = getelementptr inbounds [550 x i8], [550 x i8]* %7, i64 0, i64 %40
  %42 = load i8, i8* %41, align 1
  %43 = load i32, i32* %11, align 4
  %44 = sext i32 %43 to i64
  %45 = getelementptr inbounds [10 x i8], [10 x i8]* %9, i64 0, i64 %44
  store i8 %42, i8* %45, align 1
  br label %46

46:                                               ; preds = %36
  %47 = load i32, i32* %11, align 4
  %48 = add nsw i32 %47, 1
  store i32 %48, i32* %11, align 4
  br label %32

49:                                               ; preds = %32
  store i32 0, i32* %12, align 4
  br label %50

50:                                               ; preds = %69, %49
  %51 = load i32, i32* %12, align 4
  %52 = load i32, i32* %3, align 4
  %53 = icmp slt i32 %51, %52
  br i1 %53, label %54, label %72

54:                                               ; preds = %50
  %55 = getelementptr inbounds [10 x i8], [10 x i8]* %9, i64 0, i64 0
  %56 = load i32, i32* %12, align 4
  %57 = sext i32 %56 to i64
  %58 = getelementptr inbounds [550 x [10 x i8]], [550 x [10 x i8]]* %8, i64 0, i64 %57
  %59 = getelementptr inbounds [10 x i8], [10 x i8]* %58, i64 0, i64 0
  %60 = call i32 @strcmp(i8* %55, i8* %59) #5
  %61 = icmp eq i32 %60, 0
  br i1 %61, label %62, label %68

62:                                               ; preds = %54
  store i32 1, i32* %4, align 4
  %63 = load i32, i32* %12, align 4
  %64 = sext i32 %63 to i64
  %65 = getelementptr inbounds [550 x i32], [550 x i32]* %5, i64 0, i64 %64
  %66 = load i32, i32* %65, align 4
  %67 = add nsw i32 %66, 1
  store i32 %67, i32* %65, align 4
  br label %72

68:                                               ; preds = %54
  br label %69

69:                                               ; preds = %68
  %70 = load i32, i32* %12, align 4
  %71 = add nsw i32 %70, 1
  store i32 %71, i32* %12, align 4
  br label %50

72:                                               ; preds = %62, %50
  %73 = load i32, i32* %4, align 4
  %74 = icmp eq i32 %73, 0
  br i1 %74, label %75, label %84

75:                                               ; preds = %72
  %76 = load i32, i32* %3, align 4
  %77 = sext i32 %76 to i64
  %78 = getelementptr inbounds [550 x [10 x i8]], [550 x [10 x i8]]* %8, i64 0, i64 %77
  %79 = getelementptr inbounds [10 x i8], [10 x i8]* %78, i64 0, i64 0
  %80 = getelementptr inbounds [10 x i8], [10 x i8]* %9, i64 0, i64 0
  %81 = call i8* @strcpy(i8* %79, i8* %80) #6
  %82 = load i32, i32* %3, align 4
  %83 = add nsw i32 %82, 1
  store i32 %83, i32* %3, align 4
  br label %84

84:                                               ; preds = %75, %72
  br label %85

85:                                               ; preds = %84
  %86 = load i32, i32* %10, align 4
  %87 = add nsw i32 %86, 1
  store i32 %87, i32* %10, align 4
  br label %23

88:                                               ; preds = %23
  store i32 0, i32* %13, align 4
  br label %89

89:                                               ; preds = %106, %88
  %90 = load i32, i32* %13, align 4
  %91 = load i32, i32* %3, align 4
  %92 = icmp slt i32 %90, %91
  br i1 %92, label %93, label %109

93:                                               ; preds = %89
  %94 = load i32, i32* %13, align 4
  %95 = sext i32 %94 to i64
  %96 = getelementptr inbounds [550 x i32], [550 x i32]* %5, i64 0, i64 %95
  %97 = load i32, i32* %96, align 4
  %98 = load i32, i32* %6, align 4
  %99 = icmp sgt i32 %97, %98
  br i1 %99, label %100, label %105

100:                                              ; preds = %93
  %101 = load i32, i32* %13, align 4
  %102 = sext i32 %101 to i64
  %103 = getelementptr inbounds [550 x i32], [550 x i32]* %5, i64 0, i64 %102
  %104 = load i32, i32* %103, align 4
  store i32 %104, i32* %6, align 4
  br label %105

105:                                              ; preds = %100, %93
  br label %106

106:                                              ; preds = %105
  %107 = load i32, i32* %13, align 4
  %108 = add nsw i32 %107, 1
  store i32 %108, i32* %13, align 4
  br label %89

109:                                              ; preds = %89
  %110 = load i32, i32* %6, align 4
  %111 = icmp ne i32 %110, 0
  br i1 %111, label %112, label %138

112:                                              ; preds = %109
  %113 = load i32, i32* %6, align 4
  %114 = add nsw i32 %113, 1
  %115 = call i32 (i8*, ...) @printf(i8* getelementptr inbounds ([4 x i8], [4 x i8]* @.str, i64 0, i64 0), i32 %114)
  store i32 0, i32* %14, align 4
  br label %116

116:                                              ; preds = %134, %112
  %117 = load i32, i32* %14, align 4
  %118 = load i32, i32* %3, align 4
  %119 = icmp slt i32 %117, %118
  br i1 %119, label %120, label %137

120:                                              ; preds = %116
  %121 = load i32, i32* %14, align 4
  %122 = sext i32 %121 to i64
  %123 = getelementptr inbounds [550 x i32], [550 x i32]* %5, i64 0, i64 %122
  %124 = load i32, i32* %123, align 4
  %125 = load i32, i32* %6, align 4
  %126 = icmp eq i32 %124, %125
  br i1 %126, label %127, label %133

127:                                              ; preds = %120
  %128 = load i32, i32* %14, align 4
  %129 = sext i32 %128 to i64
  %130 = getelementptr inbounds [550 x [10 x i8]], [550 x [10 x i8]]* %8, i64 0, i64 %129
  %131 = getelementptr inbounds [10 x i8], [10 x i8]* %130, i64 0, i64 0
  %132 = call i32 (i8*, ...) @printf(i8* getelementptr inbounds ([4 x i8], [4 x i8]* @.str.1, i64 0, i64 0), i8* %131)
  br label %133

133:                                              ; preds = %127, %120
  br label %134

134:                                              ; preds = %133
  %135 = load i32, i32* %14, align 4
  %136 = add nsw i32 %135, 1
  store i32 %136, i32* %14, align 4
  br label %116

137:                                              ; preds = %116
  br label %140

138:                                              ; preds = %109
  %139 = call i32 (i8*, ...) @printf(i8* getelementptr inbounds ([3 x i8], [3 x i8]* @.str.2, i64 0, i64 0))
  br label %140

140:                                              ; preds = %138, %137
  %141 = load i32, i32* %1, align 4
  ret i32 %141
}

; Function Attrs: argmemonly nounwind willreturn
declare void @llvm.memset.p0i8.i64(i8* nocapture writeonly, i8, i64, i1 immarg) #1

declare dso_local i32 @__isoc99_scanf(i8*, ...) #2

declare dso_local i32 @gets(...) #2

; Function Attrs: nounwind readonly
declare dso_local i64 @strlen(i8*) #3

; Function Attrs: nounwind readonly
declare dso_local i32 @strcmp(i8*, i8*) #3

; Function Attrs: nounwind
declare dso_local i8* @strcpy(i8*, i8*) #4

declare dso_local i32 @printf(i8*, ...) #2


!llvm.module.flags = !{!0}
!llvm.ident = !{!1}

!0 = !{i32 1, !"wchar_size", i32 4}
!1 = !{!"clang version 10.0.0-4ubuntu1 "}
